; Function Attrs: nounwind uwtable
define internal fastcc noundef zeroext i1 @coerceToDouble(ptr noundef nonnull readonly captures(none) %0, ptr noundef nonnull writeonly captures(none) %1) unnamed_addr #0 {
  %3 = load i32, ptr %0, align 8
  switch i32 %3, label %13 [
    i32 3, label %4
    i32 2, label %7
    i32 0, label %valueTypeName.exit
    i32 1, label %11
    i32 4, label %12
  ]

4:                                                ; preds = %2
  %5 = getelementptr inbounds nuw i8, ptr %0, i64 8
  %6 = load double, ptr %5, align 8
  store double %6, ptr %1, align 8
  br label %14

7:                                                ; preds = %2
  %8 = getelementptr inbounds nuw i8, ptr %0, i64 8
  %9 = load i64, ptr %8, align 8
  %10 = sitofp i64 %9 to double
  store double %10, ptr %1, align 8
  br label %14

11:                                               ; preds = %2
  br label %valueTypeName.exit

12:                                               ; preds = %2
  br label %valueTypeName.exit

13:                                               ; preds = %2
  br label %valueTypeName.exit

valueTypeName.exit:                               ; preds = %2, %11, %12, %13
  %.0.i = phi ptr [ @.str.394, %11 ], [ @.str.404, %12 ], [ null, %13 ], [ @.str.234, %2 ]
  tail call void (i32, i32, ptr, ...) @pg_log_generic(i32 noundef 4, i32 noundef 0, ptr noundef nonnull @.str.422, ptr noundef %.0.i) #25
  br label %14

14:                                               ; preds = %valueTypeName.exit, %7, %4
  %.0 = phi i1 [ true, %4 ], [ true, %7 ], [ false, %valueTypeName.exit ]
  ret i1 %.0
}